; Function Attrs: mustprogress uwtable
define void @_ZNK19OpenColorIO_v2_4dev12CPUProcessor4Impl18getDynamicPropertyENS_19DynamicPropertyTypeE(ptr noalias sret(%"class.std::shared_ptr.192") align 8 %agg.result, ptr nocapture noundef nonnull readonly align 8 dereferenceable(144) %this, i32 noundef %type) local_unnamed_addr #3 align 2 personality ptr @__gxx_personality_v0 {
entry:
  %0 = load ptr, ptr %this, align 8
  %vtable = load ptr, ptr %0, align 8
  %vfn = getelementptr inbounds i8, ptr %vtable, i64 32
  %1 = load ptr, ptr %vfn, align 8
  %call2 = tail call noundef zeroext i1 %1(ptr noundef nonnull align 8 dereferenceable(8) %0, i32 noundef %type)
  br i1 %call2, label %return, label %if.end

if.end:                                           ; preds = %entry
  %m_cpuOps = getelementptr inbounds i8, ptr %this, i64 16
  %2 = load ptr, ptr %m_cpuOps, align 8
  %_M_finish.i = getelementptr inbounds i8, ptr %this, i64 24
  %3 = load ptr, ptr %_M_finish.i, align 8
  %cmp.i.not11 = icmp eq ptr %2, %3
  br i1 %cmp.i.not11, label %for.end, label %for.body

for.body:                                         ; preds = %if.end, %for.inc
  %__begin1.sroa.0.012 = phi ptr [ %incdec.ptr.i, %for.inc ], [ %2, %if.end ]
  %4 = load ptr, ptr %__begin1.sroa.0.012, align 8
  %vtable13 = load ptr, ptr %4, align 8
  %vfn14 = getelementptr inbounds i8, ptr %vtable13, i64 32
  %5 = load ptr, ptr %vfn14, align 8
  %call15 = tail call noundef zeroext i1 %5(ptr noundef nonnull align 8 dereferenceable(8) %4, i32 noundef %type)
  br i1 %call15, label %return, label %for.inc

for.inc:                                          ; preds = %for.body
  %incdec.ptr.i = getelementptr inbounds i8, ptr %__begin1.sroa.0.012, i64 16
  %cmp.i.not = icmp eq ptr %incdec.ptr.i, %3
  br i1 %cmp.i.not, label %for.end, label %for.body

for.end:                                          ; preds = %for.inc, %if.end
  %m_outBitDepthOp = getelementptr inbounds i8, ptr %this, i64 40
  %6 = load ptr, ptr %m_outBitDepthOp, align 8
  %vtable23 = load ptr, ptr %6, align 8
  %vfn24 = getelementptr inbounds i8, ptr %vtable23, i64 32
  %7 = load ptr, ptr %vfn24, align 8
  %call25 = tail call noundef zeroext i1 %7(ptr noundef nonnull align 8 dereferenceable(8) %6, i32 noundef %type)
  br i1 %call25, label %return, label %if.end31

if.end31:                                         ; preds = %for.end
  %exception = tail call ptr @__cxa_allocate_exception(i64 16) #20
  invoke void @_ZN19OpenColorIO_v2_4dev9ExceptionC1EPKc(ptr noundef nonnull align 8 dereferenceable(16) %exception, ptr noundef nonnull @.str.1)
          to label %invoke.cont unwind label %lpad

invoke.cont:                                      ; preds = %if.end31
  tail call void @__cxa_throw(ptr nonnull %exception, ptr nonnull @_ZTIN19OpenColorIO_v2_4dev9ExceptionE, ptr nonnull @_ZN19OpenColorIO_v2_4dev9ExceptionD1Ev) #21
  unreachable

lpad:                                             ; preds = %if.end31
  %8 = landingpad { ptr, i32 }
          cleanup
  tail call void @__cxa_free_exception(ptr %exception) #20
  resume { ptr, i32 } %8

return:                                           ; preds = %for.body, %for.end, %entry
  %m_outBitDepthOp.sink = phi ptr [ %this, %entry ], [ %m_outBitDepthOp, %for.end ], [ %__begin1.sroa.0.012, %for.body ]
  %9 = load ptr, ptr %m_outBitDepthOp.sink, align 8
  %vtable29 = load ptr, ptr %9, align 8
  %vfn30 = getelementptr inbounds i8, ptr %vtable29, i64 40
  %10 = load ptr, ptr %vfn30, align 8
  tail call void %10(ptr sret(%"class.std::shared_ptr.192") align 8 %agg.result, ptr noundef nonnull align 8 dereferenceable(8) %9, i32 noundef %type)
  ret void
}